target datalayout = "e-m:e-p270:32:32-p271:32:32-p272:64:64-i64:64-i128:128-f80:128-n8:16:32:64-S128"
target triple = "x86_64-unknown-linux-gnu"

; Function Attrs: mustprogress uwtable
define hidden void @_ZN6spacer10qe_projectER11ast_managerR10ref_vectorI3appS0_ER7obj_refI4exprS0_ER5modelbbb(ptr noundef nonnull align 8 dereferenceable(976) %m, ptr noundef nonnull align 8 dereferenceable(16) %vars, ptr noundef nonnull align 8 dereferenceable(16) %fml, ptr noundef nonnull align 8 dereferenceable(160) %mdl, i1 noundef zeroext %reduce_all_selects, i1 noundef zeroext %use_native_mbp, i1 noundef zeroext %dont_sub) #4 {
entry:
  %m.addr = alloca ptr, align 8
  %vars.addr = alloca ptr, align 8
  %fml.addr = alloca ptr, align 8
  %mdl.addr = alloca ptr, align 8
  %reduce_all_selects.addr = alloca i8, align 1
  %use_native_mbp.addr = alloca i8, align 1
  %dont_sub.addr = alloca i8, align 1
  store ptr %m, ptr %m.addr, align 8
  store ptr %vars, ptr %vars.addr, align 8
  store ptr %fml, ptr %fml.addr, align 8
  store ptr %mdl, ptr %mdl.addr, align 8
  %frombool = zext i1 %reduce_all_selects to i8
  store i8 %frombool, ptr %reduce_all_selects.addr, align 1
  %frombool1 = zext i1 %use_native_mbp to i8
  store i8 %frombool1, ptr %use_native_mbp.addr, align 1
  %frombool2 = zext i1 %dont_sub to i8
  store i8 %frombool2, ptr %dont_sub.addr, align 1
  %0 = load i8, ptr %use_native_mbp.addr, align 1
  %tobool = trunc i8 %0 to i1
  br i1 %tobool, label %if.then, label %if.else

if.then:                                          ; preds = %entry
  %1 = load ptr, ptr %m.addr, align 8
  %2 = load ptr, ptr %vars.addr, align 8
  %3 = load ptr, ptr %fml.addr, align 8
  %4 = load ptr, ptr %mdl.addr, align 8
  %5 = load i8, ptr %reduce_all_selects.addr, align 1
  %tobool3 = trunc i8 %5 to i1
  %6 = load i8, ptr %use_native_mbp.addr, align 1
  %tobool4 = trunc i8 %6 to i1
  %7 = load i8, ptr %dont_sub.addr, align 1
  %tobool5 = trunc i8 %7 to i1
  call void @_ZN6spacer13qe_project_z3ER11ast_managerR10ref_vectorI3appS0_ER7obj_refI4exprS0_ER5modelbbb(ptr noundef nonnull align 8 dereferenceable(976) %1, ptr noundef nonnull align 8 dereferenceable(16) %2, ptr noundef nonnull align 8 dereferenceable(16) %3, ptr noundef nonnull align 8 dereferenceable(160) %4, i1 noundef zeroext %tobool3, i1 noundef zeroext %tobool4, i1 noundef zeroext %tobool5)
  br label %if.end

if.else:                                          ; preds = %entry
  %8 = load ptr, ptr %m.addr, align 8
  %9 = load ptr, ptr %vars.addr, align 8
  %10 = load ptr, ptr %fml.addr, align 8
  %11 = load ptr, ptr %mdl.addr, align 8
  %12 = load i8, ptr %reduce_all_selects.addr, align 1
  %tobool6 = trunc i8 %12 to i1
  %13 = load i8, ptr %use_native_mbp.addr, align 1
  %tobool7 = trunc i8 %13 to i1
  %14 = load i8, ptr %dont_sub.addr, align 1
  %tobool8 = trunc i8 %14 to i1
  call void @_ZN6spacer17qe_project_spacerER11ast_managerR10ref_vectorI3appS0_ER7obj_refI4exprS0_ER5modelbbb(ptr noundef nonnull align 8 dereferenceable(976) %8, ptr noundef nonnull align 8 dereferenceable(16) %9, ptr noundef nonnull align 8 dereferenceable(16) %10, ptr noundef nonnull align 8 dereferenceable(160) %11, i1 noundef zeroext %tobool6, i1 noundef zeroext %tobool7, i1 noundef zeroext %tobool8)
  br label %if.end

if.end:                                           ; preds = %if.else, %if.then
  ret void
}