; Function Attrs: mustprogress uwtable
define hidden void @_ZN6spacer10qe_projectER11ast_managerR10ref_vectorI3appS0_ER7obj_refI4exprS0_ER5modelbbb(ptr noundef nonnull align 8 dereferenceable(976) %m, ptr noundef nonnull align 8 dereferenceable(16) %vars, ptr noundef nonnull align 8 dereferenceable(16) %fml, ptr noundef nonnull align 8 dereferenceable(160) %mdl, i1 noundef zeroext %reduce_all_selects, i1 noundef zeroext %use_native_mbp, i1 noundef zeroext %dont_sub) local_unnamed_addr #3 {
entry:
  br i1 %use_native_mbp, label %if.then, label %if.else

if.then:                                          ; preds = %entry
  tail call void @_ZN6spacer13qe_project_z3ER11ast_managerR10ref_vectorI3appS0_ER7obj_refI4exprS0_ER5modelbbb(ptr noundef nonnull align 8 dereferenceable(976) %m, ptr noundef nonnull align 8 dereferenceable(16) %vars, ptr noundef nonnull align 8 dereferenceable(16) %fml, ptr noundef nonnull align 8 dereferenceable(160) %mdl, i1 noundef zeroext %reduce_all_selects, i1 zeroext poison, i1 noundef zeroext %dont_sub)
  br label %if.end

if.else:                                          ; preds = %entry
  tail call void @_ZN6spacer17qe_project_spacerER11ast_managerR10ref_vectorI3appS0_ER7obj_refI4exprS0_ER5modelbbb(ptr noundef nonnull align 8 dereferenceable(976) %m, ptr noundef nonnull align 8 dereferenceable(16) %vars, ptr noundef nonnull align 8 dereferenceable(16) %fml, ptr noundef nonnull align 8 dereferenceable(160) %mdl, i1 noundef zeroext %reduce_all_selects, i1 noundef zeroext false, i1 noundef zeroext %dont_sub)
  br label %if.end

if.end:                                           ; preds = %if.else, %if.then
  ret void
}